target datalayout = "e-m:e-p270:32:32-p271:32:32-p272:64:64-i64:64-i128:128-f80:128-n8:16:32:64-S128"
target triple = "x86_64-pc-linux-gnu"

%struct.AVBPrint = type { ptr, i32, i32, i32, [1 x i8], [1000 x i8] }
%struct.microdvd_tag = type { i8, i32, i32, i32, ptr, i32 }
%struct.AVCodecContext = type { ptr, i32, i32, ptr, i32, i32, ptr, ptr, ptr, i64, i32, i32, ptr, i32, %struct.AVRational, %struct.AVRational, %struct.AVRational, i32, i32, i32, i32, i32, %struct.AVRational, i32, i32, i32, i32, i32, i32, i32, i32, i32, i32, i32, ptr, ptr, i32, float, float, float, float, float, float, float, float, float, i32, i32, i32, i32, i32, i32, i32, i32, i32, i32, i32, i32, ptr, ptr, ptr, i32, i32, i32, i32, i32, i32, i32, i32, i32, i32, %struct.AVChannelLayout, i32, i32, i32, i32, i32, i32, i32, i32, ptr, i32, i32, i32, float, float, i32, i32, i32, i32, i32, ptr, i64, i64, float, float, i32, i32, ptr, ptr, i32, i32, i32, i32, i32, ptr, ptr, ptr, ptr, i32, i32, [8 x i64], i32, i32, i32, i32, i32, i32, i32, ptr, ptr, i32, i32, i32, i32, i32, i32, i32, i32, i32, i32, ptr, ptr, i32, i32, ptr, ptr, ptr, ptr, i32, i32, i64, i32, i32, i64, ptr, i64, ptr, i32, ptr, i32 }
%struct.AVRational = type { i32, i32 }
%struct.AVChannelLayout = type { i32, i32, %union.anon.0, ptr }
%union.anon.0 = type { i64 }

@.str.2 = private unnamed_addr constant [3 x i8] c"%s\00", align 1
@.str.3 = private unnamed_addr constant [6 x i8] c"Arial\00", align 1
@.str.4 = private unnamed_addr constant [5 x i8] c"ibus\00", align 1
@.str.5 = private unnamed_addr constant [5 x i8] c"%.*s\00", align 1

; Function Attrs: inlinehint nounwind willreturn memory(none) uwtable
define internal i32 @av_tolower(i32 noundef %0) #5 {
  %2 = alloca i32, align 4
  store i32 %0, ptr %2, align 4, !tbaa !9
  %3 = load i32, ptr %2, align 4, !tbaa !9
  %4 = icmp sge i32 %3, 65
  br i1 %4, label %5, label %11

5:                                                ; preds = %1
  %6 = load i32, ptr %2, align 4, !tbaa !9
  %7 = icmp sle i32 %6, 90
  br i1 %7, label %8, label %11

8:                                                ; preds = %5
  %9 = load i32, ptr %2, align 4, !tbaa !9
  %10 = xor i32 %9, 32
  store i32 %10, ptr %2, align 4, !tbaa !9
  br label %11

11:                                               ; preds = %8, %5, %1
  %12 = load i32, ptr %2, align 4, !tbaa !9
  ret i32 %12
}

; Function Attrs: cold nounwind optsize uwtable
define internal i32 @microdvd_init(ptr noundef %0) #0 {
  %2 = alloca ptr, align 8
  %3 = alloca i32, align 4
  %4 = alloca i32, align 4
  %5 = alloca %struct.AVBPrint, align 8
  %6 = alloca i32, align 4
  %7 = alloca i32, align 4
  %8 = alloca i32, align 4
  %9 = alloca i32, align 4
  %10 = alloca i32, align 4
  %11 = alloca i32, align 4
  %12 = alloca [8 x %struct.microdvd_tag], align 16
  store ptr %0, ptr %2, align 8, !tbaa !4
  call void @llvm.lifetime.start.p0(i64 4, ptr %3) #9
  call void @llvm.lifetime.start.p0(i64 4, ptr %4) #9
  call void @llvm.lifetime.start.p0(i64 1024, ptr %5) #9
  call void @llvm.lifetime.start.p0(i64 4, ptr %6) #9
  store i32 16, ptr %6, align 4, !tbaa !9
  call void @llvm.lifetime.start.p0(i64 4, ptr %7) #9
  store i32 16777215, ptr %7, align 4, !tbaa !9
  call void @llvm.lifetime.start.p0(i64 4, ptr %8) #9
  store i32 0, ptr %8, align 4, !tbaa !9
  call void @llvm.lifetime.start.p0(i64 4, ptr %9) #9
  store i32 0, ptr %9, align 4, !tbaa !9
  call void @llvm.lifetime.start.p0(i64 4, ptr %10) #9
  store i32 0, ptr %10, align 4, !tbaa !9
  call void @llvm.lifetime.start.p0(i64 4, ptr %11) #9
  store i32 2, ptr %11, align 4, !tbaa !9
  call void @llvm.lifetime.start.p0(i64 256, ptr %12) #9
  call void @llvm.memset.p0.i64(ptr align 16 %12, i8 0, i64 256, i1 false)
  call void @av_bprint_init(ptr noundef %5, i32 noundef 0, i32 noundef 1)
  call void (ptr, ptr, ...) @av_bprintf(ptr noundef %5, ptr noundef @.str.2, ptr noundef @.str.3)
  %13 = load ptr, ptr %2, align 8, !tbaa !4
  %14 = getelementptr inbounds nuw %struct.AVCodecContext, ptr %13, i32 0, i32 12
  %15 = load ptr, ptr %14, align 8, !tbaa !11
  %16 = icmp ne ptr %15, null
  br i1 %16, label %17, label %94

17:                                               ; preds = %1
  %18 = getelementptr inbounds [8 x %struct.microdvd_tag], ptr %12, i64 0, i64 0
  %19 = load ptr, ptr %2, align 8, !tbaa !4
  %20 = getelementptr inbounds nuw %struct.AVCodecContext, ptr %19, i32 0, i32 12
  %21 = load ptr, ptr %20, align 8, !tbaa !11
  %22 = call ptr @microdvd_load_tags(ptr noundef %18, ptr noundef %21)
  store i32 0, ptr %3, align 4, !tbaa !9
  br label %23

23:                                               ; preds = %90, %17
  %24 = load i32, ptr %3, align 4, !tbaa !9
  %25 = sext i32 %24 to i64
  %26 = icmp ult i64 %25, 8
  br i1 %26, label %27, label %93

27:                                               ; preds = %23
  %28 = load i32, ptr %3, align 4, !tbaa !9
  %29 = sext i32 %28 to i64
  %30 = getelementptr inbounds [8 x %struct.microdvd_tag], ptr %12, i64 0, i64 %29
  %31 = getelementptr inbounds nuw %struct.microdvd_tag, ptr %30, i32 0, i32 0
  %32 = load i8, ptr %31, align 16, !tbaa !30
  %33 = sext i8 %32 to i32
  %34 = call i32 @av_tolower(i32 noundef %33) #10
  switch i32 %34, label %89 [
    i32 121, label %35
    i32 99, label %65
    i32 115, label %71
    i32 112, label %77
    i32 102, label %78
  ]

35:                                               ; preds = %27
  store i32 0, ptr %4, align 4, !tbaa !9
  br label %36

36:                                               ; preds = %61, %35
  %37 = load i32, ptr %4, align 4, !tbaa !9
  %38 = sext i32 %37 to i64
  %39 = icmp ult i64 %38, 4
  br i1 %39, label %40, label %64

40:                                               ; preds = %36
  %41 = load i32, ptr %3, align 4, !tbaa !9
  %42 = sext i32 %41 to i64
  %43 = getelementptr inbounds [8 x %struct.microdvd_tag], ptr %12, i64 0, i64 %42
  %44 = getelementptr inbounds nuw %struct.microdvd_tag, ptr %43, i32 0, i32 2
  %45 = load i32, ptr %44, align 8, !tbaa !32
  %46 = load i32, ptr %4, align 4, !tbaa !9
  %47 = shl i32 1, %46
  %48 = and i32 %45, %47
  %49 = icmp ne i32 %48, 0
  br i1 %49, label %50, label %60

50:                                               ; preds = %40
  %51 = load i32, ptr %4, align 4, !tbaa !9
  %52 = sext i32 %51 to i64
  %53 = getelementptr inbounds [5 x i8], ptr @.str.4, i64 0, i64 %52
  %54 = load i8, ptr %53, align 1, !tbaa !33
  %55 = sext i8 %54 to i32
  switch i32 %55, label %59 [
    i32 105, label %56
    i32 98, label %57
    i32 117, label %58
  ]

56:                                               ; preds = %50
  store i32 1, ptr %9, align 4, !tbaa !9
  br label %59

57:                                               ; preds = %50
  store i32 1, ptr %8, align 4, !tbaa !9
  br label %59

58:                                               ; preds = %50
  store i32 1, ptr %10, align 4, !tbaa !9
  br label %59

59:                                               ; preds = %50, %58, %57, %56
  br label %60

60:                                               ; preds = %59, %40
  br label %61

61:                                               ; preds = %60
  %62 = load i32, ptr %4, align 4, !tbaa !9
  %63 = add nsw i32 %62, 1
  store i32 %63, ptr %4, align 4, !tbaa !9
  br label %36, !llvm.loop !34

64:                                               ; preds = %36
  br label %89

65:                                               ; preds = %27
  %66 = load i32, ptr %3, align 4, !tbaa !9
  %67 = sext i32 %66 to i64
  %68 = getelementptr inbounds [8 x %struct.microdvd_tag], ptr %12, i64 0, i64 %67
  %69 = getelementptr inbounds nuw %struct.microdvd_tag, ptr %68, i32 0, i32 2
  %70 = load i32, ptr %69, align 8, !tbaa !32
  store i32 %70, ptr %7, align 4, !tbaa !9
  br label %89

71:                                               ; preds = %27
  %72 = load i32, ptr %3, align 4, !tbaa !9
  %73 = sext i32 %72 to i64
  %74 = getelementptr inbounds [8 x %struct.microdvd_tag], ptr %12, i64 0, i64 %73
  %75 = getelementptr inbounds nuw %struct.microdvd_tag, ptr %74, i32 0, i32 2
  %76 = load i32, ptr %75, align 8, !tbaa !32
  store i32 %76, ptr %6, align 4, !tbaa !9
  br label %89

77:                                               ; preds = %27
  store i32 8, ptr %11, align 4, !tbaa !9
  br label %89

78:                                               ; preds = %27
  call void @av_bprint_clear(ptr noundef %5)
  %79 = load i32, ptr %3, align 4, !tbaa !9
  %80 = sext i32 %79 to i64
  %81 = getelementptr inbounds [8 x %struct.microdvd_tag], ptr %12, i64 0, i64 %80
  %82 = getelementptr inbounds nuw %struct.microdvd_tag, ptr %81, i32 0, i32 5
  %83 = load i32, ptr %82, align 8, !tbaa !36
  %84 = load i32, ptr %3, align 4, !tbaa !9
  %85 = sext i32 %84 to i64
  %86 = getelementptr inbounds [8 x %struct.microdvd_tag], ptr %12, i64 0, i64 %85
  %87 = getelementptr inbounds nuw %struct.microdvd_tag, ptr %86, i32 0, i32 4
  %88 = load ptr, ptr %87, align 16, !tbaa !37
  call void (ptr, ptr, ...) @av_bprintf(ptr noundef %5, ptr noundef @.str.5, i32 noundef %83, ptr noundef %88)
  br label %89

89:                                               ; preds = %27, %78, %77, %71, %65, %64
  br label %90

90:                                               ; preds = %89
  %91 = load i32, ptr %3, align 4, !tbaa !9
  %92 = add nsw i32 %91, 1
  store i32 %92, ptr %3, align 4, !tbaa !9
  br label %23, !llvm.loop !38

93:                                               ; preds = %23
  br label %94

94:                                               ; preds = %93, %1
  %95 = load ptr, ptr %2, align 8, !tbaa !4
  %96 = getelementptr inbounds nuw %struct.AVBPrint, ptr %5, i32 0, i32 0
  %97 = load ptr, ptr %96, align 8, !tbaa !39
  %98 = load i32, ptr %6, align 4, !tbaa !9
  %99 = load i32, ptr %7, align 4, !tbaa !9
  %100 = load i32, ptr %8, align 4, !tbaa !9
  %101 = load i32, ptr %9, align 4, !tbaa !9
  %102 = load i32, ptr %10, align 4, !tbaa !9
  %103 = load i32, ptr %11, align 4, !tbaa !9
  %104 = call i32 @ff_ass_subtitle_header(ptr noundef %95, ptr noundef %97, i32 noundef %98, i32 noundef %99, i32 noundef 0, i32 noundef %100, i32 noundef %101, i32 noundef %102, i32 noundef 1, i32 noundef %103)
  call void @llvm.lifetime.end.p0(i64 256, ptr %12) #9
  call void @llvm.lifetime.end.p0(i64 4, ptr %11) #9
  call void @llvm.lifetime.end.p0(i64 4, ptr %10) #9
  call void @llvm.lifetime.end.p0(i64 4, ptr %9) #9
  call void @llvm.lifetime.end.p0(i64 4, ptr %8) #9
  call void @llvm.lifetime.end.p0(i64 4, ptr %7) #9
  call void @llvm.lifetime.end.p0(i64 4, ptr %6) #9
  call void @llvm.lifetime.end.p0(i64 1024, ptr %5) #9
  call void @llvm.lifetime.end.p0(i64 4, ptr %4) #9
  call void @llvm.lifetime.end.p0(i64 4, ptr %3) #9
  ret i32 %104
}