; Function Attrs: cold nounwind optsize uwtable
define internal i32 @microdvd_init(ptr noundef %0) #0 {
  %2 = alloca %struct.AVBPrint, align 8
  %3 = alloca [8 x %struct.microdvd_tag], align 16
  call void @llvm.lifetime.start.p0(i64 1024, ptr nonnull %2) #9
  call void @llvm.lifetime.start.p0(i64 256, ptr nonnull %3) #9
  call void @llvm.memset.p0.i64(ptr noundef nonnull align 16 dereferenceable(256) %3, i8 0, i64 256, i1 false)
  call void @av_bprint_init(ptr noundef nonnull %2, i32 noundef 0, i32 noundef 1) #9
  call void (ptr, ptr, ...) @av_bprintf(ptr noundef nonnull %2, ptr noundef nonnull @.str.2, ptr noundef nonnull @.str.3) #9
  %4 = getelementptr inbounds nuw i8, ptr %0, i64 72
  %5 = load ptr, ptr %4, align 8, !tbaa !4
  %.not = icmp eq ptr %5, null
  br i1 %.not, label %.loopexit45, label %6

6:                                                ; preds = %1
  %7 = call fastcc ptr @microdvd_load_tags(ptr noundef %3, ptr noundef nonnull %5)
  br label %8

8:                                                ; preds = %6, %.loopexit
  %indvars.iv58 = phi i64 [ 0, %6 ], [ %indvars.iv.next59, %.loopexit ]
  %.156 = phi i32 [ 2, %6 ], [ %.2, %.loopexit ]
  %.12155 = phi i32 [ 0, %6 ], [ %.4, %.loopexit ]
  %.12454 = phi i32 [ 0, %6 ], [ %.427, %.loopexit ]
  %.12953 = phi i32 [ 0, %6 ], [ %.432, %.loopexit ]
  %.13452 = phi i32 [ 16777215, %6 ], [ %.235, %.loopexit ]
  %.13751 = phi i32 [ 16, %6 ], [ %.238, %.loopexit ]
  %9 = getelementptr inbounds nuw [8 x %struct.microdvd_tag], ptr %3, i64 0, i64 %indvars.iv58
  %10 = load i8, ptr %9, align 16, !tbaa !27
  %11 = sext i8 %10 to i32
  %12 = add nsw i32 %11, -65
  %or.cond.i = icmp ult i32 %12, 26
  %13 = or disjoint i32 %11, 32
  %spec.select.i = select i1 %or.cond.i, i32 %13, i32 %11
  switch i32 %spec.select.i, label %.loopexit [
    i32 121, label %.preheader
    i32 99, label %27
    i32 115, label %30
    i32 112, label %33
    i32 102, label %34
  ]

.preheader:                                       ; preds = %8
  %14 = getelementptr inbounds nuw i8, ptr %9, i64 8
  %15 = load i32, ptr %14, align 8, !tbaa !29
  br label %16

16:                                               ; preds = %.preheader, %26
  %indvars.iv = phi i64 [ 0, %.preheader ], [ %indvars.iv.next, %26 ]
  %.22249 = phi i32 [ %.12155, %.preheader ], [ %.3, %26 ]
  %.22548 = phi i32 [ %.12454, %.preheader ], [ %.326, %26 ]
  %.23047 = phi i32 [ %.12953, %.preheader ], [ %.331, %26 ]
  %17 = trunc nuw nsw i64 %indvars.iv to i32
  %18 = shl nuw nsw i32 1, %17
  %19 = and i32 %15, %18
  %.not44 = icmp eq i32 %19, 0
  br i1 %.not44, label %26, label %20

20:                                               ; preds = %16
  %21 = getelementptr inbounds nuw [5 x i8], ptr @.str.4, i64 0, i64 %indvars.iv
  %22 = load i8, ptr %21, align 1, !tbaa !30
  switch i8 %22, label %26 [
    i8 105, label %23
    i8 98, label %24
    i8 117, label %25
  ]

23:                                               ; preds = %20
  br label %26

24:                                               ; preds = %20
  br label %26

25:                                               ; preds = %20
  br label %26

26:                                               ; preds = %16, %25, %24, %23, %20
  %.331 = phi i32 [ %.23047, %20 ], [ %.23047, %25 ], [ 1, %24 ], [ %.23047, %23 ], [ %.23047, %16 ]
  %.326 = phi i32 [ %.22548, %20 ], [ %.22548, %25 ], [ %.22548, %24 ], [ 1, %23 ], [ %.22548, %16 ]
  %.3 = phi i32 [ %.22249, %20 ], [ 1, %25 ], [ %.22249, %24 ], [ %.22249, %23 ], [ %.22249, %16 ]
  %indvars.iv.next = add nuw nsw i64 %indvars.iv, 1
  %exitcond.not = icmp eq i64 %indvars.iv.next, 4
  br i1 %exitcond.not, label %.loopexit, label %16, !llvm.loop !31

27:                                               ; preds = %8
  %28 = getelementptr inbounds nuw i8, ptr %9, i64 8
  %29 = load i32, ptr %28, align 8, !tbaa !29
  br label %.loopexit

30:                                               ; preds = %8
  %31 = getelementptr inbounds nuw i8, ptr %9, i64 8
  %32 = load i32, ptr %31, align 8, !tbaa !29
  br label %.loopexit

33:                                               ; preds = %8
  br label %.loopexit

34:                                               ; preds = %8
  call void @av_bprint_clear(ptr noundef nonnull %2) #9
  %35 = getelementptr inbounds nuw i8, ptr %9, i64 24
  %36 = load i32, ptr %35, align 8, !tbaa !33
  %37 = getelementptr inbounds nuw i8, ptr %9, i64 16
  %38 = load ptr, ptr %37, align 16, !tbaa !34
  call void (ptr, ptr, ...) @av_bprintf(ptr noundef nonnull %2, ptr noundef nonnull @.str.5, i32 noundef %36, ptr noundef %38) #9
  br label %.loopexit

.loopexit:                                        ; preds = %26, %8, %27, %30, %33, %34
  %.238 = phi i32 [ %.13751, %8 ], [ %.13751, %34 ], [ %.13751, %33 ], [ %32, %30 ], [ %.13751, %27 ], [ %.13751, %26 ]
  %.235 = phi i32 [ %.13452, %8 ], [ %.13452, %34 ], [ %.13452, %33 ], [ %.13452, %30 ], [ %29, %27 ], [ %.13452, %26 ]
  %.432 = phi i32 [ %.12953, %8 ], [ %.12953, %34 ], [ %.12953, %33 ], [ %.12953, %30 ], [ %.12953, %27 ], [ %.331, %26 ]
  %.427 = phi i32 [ %.12454, %8 ], [ %.12454, %34 ], [ %.12454, %33 ], [ %.12454, %30 ], [ %.12454, %27 ], [ %.326, %26 ]
  %.4 = phi i32 [ %.12155, %8 ], [ %.12155, %34 ], [ %.12155, %33 ], [ %.12155, %30 ], [ %.12155, %27 ], [ %.3, %26 ]
  %.2 = phi i32 [ %.156, %8 ], [ %.156, %34 ], [ 8, %33 ], [ %.156, %30 ], [ %.156, %27 ], [ %.156, %26 ]
  %indvars.iv.next59 = add nuw nsw i64 %indvars.iv58, 1
  %exitcond61.not = icmp eq i64 %indvars.iv.next59, 8
  br i1 %exitcond61.not, label %.loopexit45, label %8, !llvm.loop !35

.loopexit45:                                      ; preds = %.loopexit, %1
  %.036 = phi i32 [ 16, %1 ], [ %.238, %.loopexit ]
  %.033 = phi i32 [ 16777215, %1 ], [ %.235, %.loopexit ]
  %.028 = phi i32 [ 0, %1 ], [ %.432, %.loopexit ]
  %.023 = phi i32 [ 0, %1 ], [ %.427, %.loopexit ]
  %.020 = phi i32 [ 0, %1 ], [ %.4, %.loopexit ]
  %.0 = phi i32 [ 2, %1 ], [ %.2, %.loopexit ]
  %39 = load ptr, ptr %2, align 8, !tbaa !36
  %40 = call i32 @ff_ass_subtitle_header(ptr noundef %0, ptr noundef %39, i32 noundef %.036, i32 noundef %.033, i32 noundef 0, i32 noundef %.028, i32 noundef %.023, i32 noundef %.020, i32 noundef 1, i32 noundef %.0) #9
  call void @llvm.lifetime.end.p0(i64 256, ptr nonnull %3) #9
  call void @llvm.lifetime.end.p0(i64 1024, ptr nonnull %2) #9
  ret i32 %40
}